target datalayout = "e-m:e-p270:32:32-p271:32:32-p272:64:64-i64:64-i128:128-f80:128-n8:16:32:64-S128"
target triple = "x86_64-pc-linux-gnu"

%struct.lwCanvas = type { i32, i32, ptr }

; Function Attrs: nounwind uwtable
define dso_local ptr @lwCreateCanvas(i32 noundef %0, i32 noundef %1, i32 noundef %2) #0 {
  %4 = alloca i32, align 4
  %5 = alloca i32, align 4
  %6 = alloca i32, align 4
  %7 = alloca ptr, align 8
  store i32 %0, ptr %4, align 4, !tbaa !15
  store i32 %1, ptr %5, align 4, !tbaa !15
  store i32 %2, ptr %6, align 4, !tbaa !15
  call void @llvm.lifetime.start.p0(i64 8, ptr %7) #9
  %8 = call noalias ptr @zmalloc(i64 noundef 16) #11
  store ptr %8, ptr %7, align 8, !tbaa !40
  %9 = load i32, ptr %4, align 4, !tbaa !15
  %10 = load ptr, ptr %7, align 8, !tbaa !40
  %11 = getelementptr inbounds nuw %struct.lwCanvas, ptr %10, i32 0, i32 0
  store i32 %9, ptr %11, align 8, !tbaa !42
  %12 = load i32, ptr %5, align 4, !tbaa !15
  %13 = load ptr, ptr %7, align 8, !tbaa !40
  %14 = getelementptr inbounds nuw %struct.lwCanvas, ptr %13, i32 0, i32 1
  store i32 %12, ptr %14, align 4, !tbaa !44
  %15 = load i32, ptr %4, align 4, !tbaa !15
  %16 = sext i32 %15 to i64
  %17 = load i32, ptr %5, align 4, !tbaa !15
  %18 = sext i32 %17 to i64
  %19 = mul i64 %16, %18
  %20 = call noalias ptr @zmalloc(i64 noundef %19) #11
  %21 = load ptr, ptr %7, align 8, !tbaa !40
  %22 = getelementptr inbounds nuw %struct.lwCanvas, ptr %21, i32 0, i32 2
  store ptr %20, ptr %22, align 8, !tbaa !45
  %23 = load ptr, ptr %7, align 8, !tbaa !40
  %24 = getelementptr inbounds nuw %struct.lwCanvas, ptr %23, i32 0, i32 2
  %25 = load ptr, ptr %24, align 8, !tbaa !45
  %26 = load i32, ptr %6, align 4, !tbaa !15
  %27 = trunc i32 %26 to i8
  %28 = load i32, ptr %4, align 4, !tbaa !15
  %29 = sext i32 %28 to i64
  %30 = load i32, ptr %5, align 4, !tbaa !15
  %31 = sext i32 %30 to i64
  %32 = mul i64 %29, %31
  call void @llvm.memset.p0.i64(ptr align 1 %25, i8 %27, i64 %32, i1 false)
  %33 = load ptr, ptr %7, align 8, !tbaa !40
  call void @llvm.lifetime.end.p0(i64 8, ptr %7) #9
  ret ptr %33
}