; Function Attrs: nounwind uwtable
define dso_local noalias noundef ptr @lwCreateCanvas(i32 noundef %0, i32 noundef %1, i32 noundef %2) local_unnamed_addr #0 {
  %4 = tail call noalias dereferenceable_or_null(16) ptr @zmalloc(i64 noundef 16) #16
  store i32 %0, ptr %4, align 8, !tbaa !37
  %5 = getelementptr inbounds nuw i8, ptr %4, i64 4
  store i32 %1, ptr %5, align 4, !tbaa !39
  %6 = sext i32 %0 to i64
  %7 = sext i32 %1 to i64
  %8 = mul nsw i64 %7, %6
  %9 = tail call noalias ptr @zmalloc(i64 noundef %8) #16
  %10 = getelementptr inbounds nuw i8, ptr %4, i64 8
  store ptr %9, ptr %10, align 8, !tbaa !40
  %11 = trunc i32 %2 to i8
  tail call void @llvm.memset.p0.i64(ptr align 1 %9, i8 %11, i64 %8, i1 false)
  ret ptr %4
}